; Function Attrs: mustprogress nounwind uwtable
define hidden noundef zeroext i1 @_ZN23ShenandoahControlThread27check_cancellation_or_degenEN12ShenandoahGC20ShenandoahDegenPointE(ptr noundef nonnull align 8 dereferenceable(1868) %0, i32 noundef %1) local_unnamed_addr #0 align 2 {
  %3 = load ptr, ptr @_ZN8Universe14_collectedHeapE, align 8
  %4 = getelementptr inbounds i8, ptr %3, i64 1552
  %5 = load volatile i8, ptr %4, align 1
  tail call void asm sideeffect "", "~{memory},~{dirflag},~{fpsr},~{flags}"() #10, !srcloc !7
  %6 = icmp eq i8 %5, 1
  br i1 %6, label %7, label %11

7:                                                ; preds = %2
  %8 = tail call noundef zeroext i1 @_ZN20ShenandoahController20in_graceful_shutdownEv(ptr noundef nonnull align 8 dereferenceable(1728) %0) #10
  br i1 %8, label %11, label %9

9:                                                ; preds = %7
  %10 = getelementptr inbounds i8, ptr %0, i64 1864
  store i32 %1, ptr %10, align 8
  br label %11

11:                                               ; preds = %2, %7, %9
  ret i1 %6
}